; Function Attrs: mustprogress uwtable
define void @_ZN10ColorValue3setERK5Value(ptr nocapture noundef nonnull writeonly align 8 dereferenceable(24) %0, ptr noundef nonnull align 8 dereferenceable(8) %1) unnamed_addr #1 align 2 {
  %3 = alloca %class.QColor, align 4
  %4 = load ptr, ptr %1, align 8
  %5 = getelementptr inbounds i8, ptr %4, i64 72
  %6 = load ptr, ptr %5, align 8
  call void %6(ptr dead_on_unwind nonnull writable sret(%class.QColor) align 4 %3, ptr noundef nonnull align 8 dereferenceable(8) %1)
  %7 = getelementptr inbounds i8, ptr %0, i64 8
  %8 = load i32, ptr %3, align 4
  store i32 %8, ptr %7, align 8
  %9 = getelementptr inbounds i8, ptr %3, i64 4
  %10 = getelementptr inbounds i8, ptr %0, i64 12
  call void @llvm.memcpy.p0.p0.i64(ptr noundef nonnull align 4 dereferenceable(10) %10, ptr noundef nonnull align 4 dereferenceable(10) %9, i64 10, i1 false)
  ret void
}